; Function Attrs: mustprogress nounwind uwtable
define hidden void @_ZN24G1YoungGCMonitoringScopeC2EP19G1MonitoringSupportb(ptr noundef nonnull align 8 dereferenceable(88) %0, ptr noundef %1, i1 noundef zeroext %2) unnamed_addr #0 align 2 {
  %4 = getelementptr inbounds i8, ptr %1, i64 608
  %5 = load ptr, ptr %4, align 8
  %6 = getelementptr inbounds i8, ptr %1, i64 8
  store ptr %1, ptr %0, align 8
  %7 = getelementptr inbounds i8, ptr %0, i64 8
  tail call void @_ZN19TraceCollectorStatsC1EP17CollectorCounters(ptr noundef nonnull align 8 dereferenceable(48) %7, ptr noundef %5) #10
  %8 = getelementptr inbounds i8, ptr %0, i64 56
  %9 = load ptr, ptr @_ZN8Universe14_collectedHeapE, align 8
  %10 = getelementptr inbounds i8, ptr %9, i64 80
  %11 = load i32, ptr %10, align 8
  tail call void @_ZN23TraceMemoryManagerStatsC1EP15GCMemoryManagerN7GCCause5CauseEPKcbbbbbbbb(ptr noundef nonnull align 8 dereferenceable(32) %8, ptr noundef nonnull %6, i32 noundef %11, ptr noundef nonnull @.str.15, i1 noundef zeroext %2, i1 noundef zeroext true, i1 noundef zeroext true, i1 noundef zeroext true, i1 noundef zeroext true, i1 noundef zeroext true, i1 noundef zeroext true, i1 noundef zeroext true) #10
  ret void
}